; Function Attrs: mustprogress uwtable
define void @_ZN2cv11writeScalarERNS_11FileStorageEl(ptr noundef nonnull readonly align 8 captures(none) dereferenceable(64) %0, i64 noundef %1) local_unnamed_addr #13 personality ptr @__gxx_personality_v0 {
  %3 = alloca %"class.std::__cxx11::basic_string", align 8
  %4 = getelementptr inbounds nuw i8, ptr %0, i64 48
  %5 = load ptr, ptr %4, align 8, !tbaa !352
  call void @llvm.lifetime.start.p0(i64 32, ptr nonnull %3) #41
  %6 = getelementptr inbounds nuw i8, ptr %3, i64 16
  store ptr %6, ptr %3, align 8, !tbaa !130
  %7 = getelementptr inbounds nuw i8, ptr %3, i64 8
  store i64 0, ptr %7, align 8, !tbaa !18
  store i8 0, ptr %6, align 8, !tbaa !5
  invoke void @_ZN2cv11FileStorage4Impl5writeERKNSt7__cxx1112basic_stringIcSt11char_traitsIcESaIcEEEl(ptr noundef nonnull align 8 dereferenceable(700) %5, ptr noundef nonnull align 8 dereferenceable(32) %3, i64 noundef %1)
          to label %8 unwind label %13

8:                                                ; preds = %2
  %9 = load ptr, ptr %3, align 8, !tbaa !12
  %10 = icmp eq ptr %9, %6
  br i1 %10, label %_ZNKSt7__cxx1112basic_stringIcSt11char_traitsIcESaIcEE11_M_is_localEv.exit.thread.i.i, label %_ZNKSt7__cxx1112basic_stringIcSt11char_traitsIcESaIcEE11_M_is_localEv.exit.i.i

_ZNKSt7__cxx1112basic_stringIcSt11char_traitsIcESaIcEE11_M_is_localEv.exit.thread.i.i: ; preds = %8
  %11 = load i64, ptr %7, align 8, !tbaa !18
  %12 = icmp ult i64 %11, 16
  call void @llvm.assume(i1 %12)
  br label %_ZNSt7__cxx1112basic_stringIcSt11char_traitsIcESaIcEED2Ev.exit

_ZNKSt7__cxx1112basic_stringIcSt11char_traitsIcESaIcEE11_M_is_localEv.exit.i.i: ; preds = %8
  call void @_ZdlPv(ptr noundef %9) #43
  br label %_ZNSt7__cxx1112basic_stringIcSt11char_traitsIcESaIcEED2Ev.exit

_ZNSt7__cxx1112basic_stringIcSt11char_traitsIcESaIcEED2Ev.exit: ; preds = %_ZNKSt7__cxx1112basic_stringIcSt11char_traitsIcESaIcEE11_M_is_localEv.exit.thread.i.i, %_ZNKSt7__cxx1112basic_stringIcSt11char_traitsIcESaIcEE11_M_is_localEv.exit.i.i
  call void @llvm.lifetime.end.p0(i64 32, ptr nonnull %3) #41
  ret void

13:                                               ; preds = %2
  %14 = landingpad { ptr, i32 }
          cleanup
  %15 = load ptr, ptr %3, align 8, !tbaa !12
  %16 = icmp eq ptr %15, %6
  br i1 %16, label %_ZNKSt7__cxx1112basic_stringIcSt11char_traitsIcESaIcEE11_M_is_localEv.exit.thread.i.i4, label %_ZNKSt7__cxx1112basic_stringIcSt11char_traitsIcESaIcEE11_M_is_localEv.exit.i.i3

_ZNKSt7__cxx1112basic_stringIcSt11char_traitsIcESaIcEE11_M_is_localEv.exit.thread.i.i4: ; preds = %13
  %17 = load i64, ptr %7, align 8, !tbaa !18
  %18 = icmp ult i64 %17, 16
  call void @llvm.assume(i1 %18)
  br label %_ZNSt7__cxx1112basic_stringIcSt11char_traitsIcESaIcEED2Ev.exit5

_ZNKSt7__cxx1112basic_stringIcSt11char_traitsIcESaIcEE11_M_is_localEv.exit.i.i3: ; preds = %13
  call void @_ZdlPv(ptr noundef %15) #43
  br label %_ZNSt7__cxx1112basic_stringIcSt11char_traitsIcESaIcEED2Ev.exit5

_ZNSt7__cxx1112basic_stringIcSt11char_traitsIcESaIcEED2Ev.exit5: ; preds = %_ZNKSt7__cxx1112basic_stringIcSt11char_traitsIcESaIcEE11_M_is_localEv.exit.thread.i.i4, %_ZNKSt7__cxx1112basic_stringIcSt11char_traitsIcESaIcEE11_M_is_localEv.exit.i.i3
  call void @llvm.lifetime.end.p0(i64 32, ptr nonnull %3) #41
  resume { ptr, i32 } %14
}